#include <math.h>
#include <stdio.h>
#include <stdlib.h>
#include <string.h>

int main(){
    int n,i,a,tuzhi[25];
    scanf("%d",&n);
    tuzhi[0]=1;
    tuzhi[1]=1;
    for(i=2;i<25;i++){
           tuzhi[i]=tuzhi[i-1]+tuzhi[i-2]; 
    }          
    for(i=0;i<n;i++){
           scanf("%d",&a);
           printf("%d\n",tuzhi[a-1]);
    }
    scanf("%d",&n);
    return 0;
}        
